target datalayout = "e-m:e-p270:32:32-p271:32:32-p272:64:64-i64:64-i128:128-f80:128-n8:16:32:64-S128"
target triple = "x86_64-pc-linux-gnu"

%struct._mcast_stream_info = type { %struct._address, i16, %struct._address, i16, i32, double, i64, double, i32, %struct.nstime_t, %struct.nstime_t, %struct.nstime_t, %struct.buffer }
%struct._address = type { i32, i32, ptr, ptr }
%struct.nstime_t = type { i64, i32 }
%struct.buffer = type { ptr, i32, i32, i32, i32, i32, i32, i32, i32, i32, i32, i32, double }
%struct._packet_info = type { ptr, ptr, i32, i32, %struct.nstime_t, %struct.nstime_t, %struct.nstime_t, i8, ptr, ptr, ptr, ptr, %struct._address, %struct._address, %struct._address, %struct._address, %struct._address, %struct._address, i32, ptr, i8, [3 x i8], %struct.anon, i32, i32, i32, i32, ptr, i8, ptr, ptr, i16, i16, i32, i32, i16, i32, i32, ptr, ptr, ptr, i8, i8, i16, i16, i16, i32, i16, i16, ptr, ptr, ptr, ptr, ptr, i32, i32 }
%struct.anon = type { i8, [3 x i8] }

@mcast_stream_trigger = hidden global i32 50, align 4
@mcast_stream_burstint = hidden global i16 100, align 2
@buffsize = internal global i32 40000, align 4
@stderr = external global ptr, align 8
@.str.1 = private unnamed_addr constant [30 x i8] c"Warning: capture buffer full\0A\00", align 1

; Function Attrs: nounwind null_pointer_is_valid sspstrong uwtable
define internal zeroext i16 @comparetimes(ptr noundef %0, ptr noundef %1, i16 noundef zeroext %2) #11 {
  %4 = alloca i16, align 2
  %5 = alloca ptr, align 8
  %6 = alloca ptr, align 8
  %7 = alloca i16, align 2
  store ptr %0, ptr %5, align 8
  store ptr %1, ptr %6, align 8
  store i16 %2, ptr %7, align 2
  %8 = load ptr, ptr %6, align 8
  %9 = getelementptr inbounds nuw %struct.nstime_t, ptr %8, i32 0, i32 0
  %10 = load i64, ptr %9, align 8
  %11 = load ptr, ptr %5, align 8
  %12 = getelementptr inbounds nuw %struct.nstime_t, ptr %11, i32 0, i32 0
  %13 = load i64, ptr %12, align 8
  %14 = sub i64 %10, %13
  %15 = mul i64 %14, 1000
  %16 = load ptr, ptr %6, align 8
  %17 = getelementptr inbounds nuw %struct.nstime_t, ptr %16, i32 0, i32 1
  %18 = load i32, ptr %17, align 8
  %19 = load ptr, ptr %5, align 8
  %20 = getelementptr inbounds nuw %struct.nstime_t, ptr %19, i32 0, i32 1
  %21 = load i32, ptr %20, align 8
  %22 = sub i32 %18, %21
  %23 = sdiv i32 %22, 1000000
  %24 = sext i32 %23 to i64
  %25 = add i64 %15, %24
  %26 = load i16, ptr %7, align 2
  %27 = zext i16 %26 to i64
  %28 = icmp sgt i64 %25, %27
  br i1 %28, label %29, label %30

29:                                               ; preds = %3
  store i16 1, ptr %4, align 2
  br label %31

30:                                               ; preds = %3
  store i16 0, ptr %4, align 2
  br label %31

31:                                               ; preds = %30, %29
  %32 = load i16, ptr %4, align 2
  ret i16 %32
}

; Function Attrs: null_pointer_is_valid sspstrong uwtable
define internal void @slidingwindow(ptr noundef %0, ptr noundef %1, i32 noundef %2) #0 {
  %4 = alloca ptr, align 8
  %5 = alloca ptr, align 8
  %6 = alloca i32, align 4
  %7 = alloca ptr, align 8
  %8 = alloca i32, align 4
  store ptr %0, ptr %4, align 8
  store ptr %1, ptr %5, align 8
  store i32 %2, ptr %6, align 4
  call void @llvm.lifetime.start.p0(i64 8, ptr %7) #12
  call void @llvm.lifetime.start.p0(i64 4, ptr %8) #12
  %9 = load ptr, ptr %4, align 8
  %10 = getelementptr inbounds nuw %struct._mcast_stream_info, ptr %9, i32 0, i32 12
  %11 = getelementptr inbounds nuw %struct.buffer, ptr %10, i32 0, i32 0
  %12 = load ptr, ptr %11, align 8
  store ptr %12, ptr %7, align 8
  %13 = load ptr, ptr %4, align 8
  %14 = getelementptr inbounds nuw %struct._mcast_stream_info, ptr %13, i32 0, i32 12
  %15 = getelementptr inbounds nuw %struct.buffer, ptr %14, i32 0, i32 2
  %16 = load i32, ptr %15, align 4
  %17 = load ptr, ptr %4, align 8
  %18 = getelementptr inbounds nuw %struct._mcast_stream_info, ptr %17, i32 0, i32 12
  %19 = getelementptr inbounds nuw %struct.buffer, ptr %18, i32 0, i32 1
  %20 = load i32, ptr %19, align 8
  %21 = sub i32 %16, %20
  store i32 %21, ptr %8, align 4
  %22 = load i32, ptr %8, align 4
  %23 = icmp slt i32 %22, 0
  br i1 %23, label %24, label %28

24:                                               ; preds = %3
  %25 = load i32, ptr @buffsize, align 4
  %26 = load i32, ptr %8, align 4
  %27 = add i32 %26, %25
  store i32 %27, ptr %8, align 4
  br label %28

28:                                               ; preds = %24, %3
  %29 = load i32, ptr %8, align 4
  %30 = load i32, ptr @buffsize, align 4
  %31 = sub i32 %30, 2
  %32 = icmp sge i32 %29, %31
  br i1 %32, label %33, label %58

33:                                               ; preds = %28
  %34 = load ptr, ptr @stderr, align 8
  %35 = call i32 (ptr, i32, ptr, ...) @__fprintf_chk(ptr noundef %34, i32 noundef 2, ptr noundef @.str.1)
  %36 = load ptr, ptr %4, align 8
  %37 = getelementptr inbounds nuw %struct._mcast_stream_info, ptr %36, i32 0, i32 12
  %38 = getelementptr inbounds nuw %struct.buffer, ptr %37, i32 0, i32 1
  %39 = load i32, ptr %38, align 8
  %40 = add i32 %39, 1
  store i32 %40, ptr %38, align 8
  %41 = load ptr, ptr %4, align 8
  %42 = getelementptr inbounds nuw %struct._mcast_stream_info, ptr %41, i32 0, i32 12
  %43 = getelementptr inbounds nuw %struct.buffer, ptr %42, i32 0, i32 1
  %44 = load i32, ptr %43, align 8
  %45 = load i32, ptr @buffsize, align 4
  %46 = icmp sge i32 %44, %45
  br i1 %46, label %47, label %57

47:                                               ; preds = %33
  %48 = load ptr, ptr %4, align 8
  %49 = getelementptr inbounds nuw %struct._mcast_stream_info, ptr %48, i32 0, i32 12
  %50 = getelementptr inbounds nuw %struct.buffer, ptr %49, i32 0, i32 1
  %51 = load i32, ptr %50, align 8
  %52 = load i32, ptr @buffsize, align 4
  %53 = srem i32 %51, %52
  %54 = load ptr, ptr %4, align 8
  %55 = getelementptr inbounds nuw %struct._mcast_stream_info, ptr %54, i32 0, i32 12
  %56 = getelementptr inbounds nuw %struct.buffer, ptr %55, i32 0, i32 1
  store i32 %53, ptr %56, align 8
  br label %57

57:                                               ; preds = %47, %33
  br label %58

58:                                               ; preds = %57, %28
  %59 = load ptr, ptr %7, align 8
  %60 = load ptr, ptr %4, align 8
  %61 = getelementptr inbounds nuw %struct._mcast_stream_info, ptr %60, i32 0, i32 12
  %62 = getelementptr inbounds nuw %struct.buffer, ptr %61, i32 0, i32 2
  %63 = load i32, ptr %62, align 4
  %64 = sext i32 %63 to i64
  %65 = getelementptr %struct.nstime_t, ptr %59, i64 %64
  %66 = load ptr, ptr %5, align 8
  %67 = getelementptr inbounds nuw %struct._packet_info, ptr %66, i32 0, i32 5
  call void @llvm.memcpy.p0.p0.i64(ptr align 8 %65, ptr align 8 %67, i64 16, i1 false)
  br label %68

68:                                               ; preds = %108, %58
  %69 = load ptr, ptr %7, align 8
  %70 = load ptr, ptr %4, align 8
  %71 = getelementptr inbounds nuw %struct._mcast_stream_info, ptr %70, i32 0, i32 12
  %72 = getelementptr inbounds nuw %struct.buffer, ptr %71, i32 0, i32 1
  %73 = load i32, ptr %72, align 8
  %74 = sext i32 %73 to i64
  %75 = getelementptr %struct.nstime_t, ptr %69, i64 %74
  %76 = load ptr, ptr %7, align 8
  %77 = load ptr, ptr %4, align 8
  %78 = getelementptr inbounds nuw %struct._mcast_stream_info, ptr %77, i32 0, i32 12
  %79 = getelementptr inbounds nuw %struct.buffer, ptr %78, i32 0, i32 2
  %80 = load i32, ptr %79, align 4
  %81 = sext i32 %80 to i64
  %82 = getelementptr %struct.nstime_t, ptr %76, i64 %81
  %83 = load i16, ptr @mcast_stream_burstint, align 2
  %84 = call zeroext i16 @comparetimes(ptr noundef %75, ptr noundef %82, i16 noundef zeroext %83)
  %85 = icmp ne i16 %84, 0
  br i1 %85, label %86, label %111

86:                                               ; preds = %68
  %87 = load ptr, ptr %4, align 8
  %88 = getelementptr inbounds nuw %struct._mcast_stream_info, ptr %87, i32 0, i32 12
  %89 = getelementptr inbounds nuw %struct.buffer, ptr %88, i32 0, i32 1
  %90 = load i32, ptr %89, align 8
  %91 = add i32 %90, 1
  store i32 %91, ptr %89, align 8
  %92 = load ptr, ptr %4, align 8
  %93 = getelementptr inbounds nuw %struct._mcast_stream_info, ptr %92, i32 0, i32 12
  %94 = getelementptr inbounds nuw %struct.buffer, ptr %93, i32 0, i32 1
  %95 = load i32, ptr %94, align 8
  %96 = load i32, ptr @buffsize, align 4
  %97 = icmp sge i32 %95, %96
  br i1 %97, label %98, label %108

98:                                               ; preds = %86
  %99 = load ptr, ptr %4, align 8
  %100 = getelementptr inbounds nuw %struct._mcast_stream_info, ptr %99, i32 0, i32 12
  %101 = getelementptr inbounds nuw %struct.buffer, ptr %100, i32 0, i32 1
  %102 = load i32, ptr %101, align 8
  %103 = load i32, ptr @buffsize, align 4
  %104 = srem i32 %102, %103
  %105 = load ptr, ptr %4, align 8
  %106 = getelementptr inbounds nuw %struct._mcast_stream_info, ptr %105, i32 0, i32 12
  %107 = getelementptr inbounds nuw %struct.buffer, ptr %106, i32 0, i32 1
  store i32 %104, ptr %107, align 8
  br label %108

108:                                              ; preds = %98, %86
  %109 = load i32, ptr %8, align 4
  %110 = add i32 %109, -1
  store i32 %110, ptr %8, align 4
  br label %68, !llvm.loop !9

111:                                              ; preds = %68
  %112 = load i32, ptr %8, align 4
  %113 = load ptr, ptr %4, align 8
  %114 = getelementptr inbounds nuw %struct._mcast_stream_info, ptr %113, i32 0, i32 12
  %115 = getelementptr inbounds nuw %struct.buffer, ptr %114, i32 0, i32 3
  store i32 %112, ptr %115, align 8
  %116 = load ptr, ptr %4, align 8
  %117 = getelementptr inbounds nuw %struct._mcast_stream_info, ptr %116, i32 0, i32 12
  %118 = getelementptr inbounds nuw %struct.buffer, ptr %117, i32 0, i32 3
  %119 = load i32, ptr %118, align 8
  %120 = load ptr, ptr %4, align 8
  %121 = getelementptr inbounds nuw %struct._mcast_stream_info, ptr %120, i32 0, i32 12
  %122 = getelementptr inbounds nuw %struct.buffer, ptr %121, i32 0, i32 4
  %123 = load i32, ptr %122, align 4
  %124 = icmp sgt i32 %119, %123
  br i1 %124, label %125, label %150

125:                                              ; preds = %111
  %126 = load ptr, ptr %4, align 8
  %127 = getelementptr inbounds nuw %struct._mcast_stream_info, ptr %126, i32 0, i32 12
  %128 = getelementptr inbounds nuw %struct.buffer, ptr %127, i32 0, i32 3
  %129 = load i32, ptr %128, align 8
  %130 = load ptr, ptr %4, align 8
  %131 = getelementptr inbounds nuw %struct._mcast_stream_info, ptr %130, i32 0, i32 12
  %132 = getelementptr inbounds nuw %struct.buffer, ptr %131, i32 0, i32 4
  store i32 %129, ptr %132, align 4
  %133 = load ptr, ptr %4, align 8
  %134 = getelementptr inbounds nuw %struct._mcast_stream_info, ptr %133, i32 0, i32 12
  %135 = getelementptr inbounds nuw %struct.buffer, ptr %134, i32 0, i32 4
  %136 = load i32, ptr %135, align 4
  %137 = sitofp i32 %136 to double
  %138 = fmul double %137, 1.000000e+03
  %139 = load i16, ptr @mcast_stream_burstint, align 2
  %140 = zext i16 %139 to i32
  %141 = sitofp i32 %140 to double
  %142 = fdiv double %138, %141
  %143 = load i32, ptr %6, align 4
  %144 = uitofp i32 %143 to double
  %145 = fmul double %142, %144
  %146 = fmul double %145, 8.000000e+00
  %147 = load ptr, ptr %4, align 8
  %148 = getelementptr inbounds nuw %struct._mcast_stream_info, ptr %147, i32 0, i32 12
  %149 = getelementptr inbounds nuw %struct.buffer, ptr %148, i32 0, i32 12
  store double %146, ptr %149, align 8
  br label %150

150:                                              ; preds = %125, %111
  %151 = load ptr, ptr %4, align 8
  %152 = getelementptr inbounds nuw %struct._mcast_stream_info, ptr %151, i32 0, i32 12
  %153 = getelementptr inbounds nuw %struct.buffer, ptr %152, i32 0, i32 2
  %154 = load i32, ptr %153, align 4
  %155 = add i32 %154, 1
  store i32 %155, ptr %153, align 4
  %156 = load ptr, ptr %4, align 8
  %157 = getelementptr inbounds nuw %struct._mcast_stream_info, ptr %156, i32 0, i32 12
  %158 = getelementptr inbounds nuw %struct.buffer, ptr %157, i32 0, i32 2
  %159 = load i32, ptr %158, align 4
  %160 = load i32, ptr @buffsize, align 4
  %161 = icmp sge i32 %159, %160
  br i1 %161, label %162, label %172

162:                                              ; preds = %150
  %163 = load ptr, ptr %4, align 8
  %164 = getelementptr inbounds nuw %struct._mcast_stream_info, ptr %163, i32 0, i32 12
  %165 = getelementptr inbounds nuw %struct.buffer, ptr %164, i32 0, i32 2
  %166 = load i32, ptr %165, align 4
  %167 = load i32, ptr @buffsize, align 4
  %168 = srem i32 %166, %167
  %169 = load ptr, ptr %4, align 8
  %170 = getelementptr inbounds nuw %struct._mcast_stream_info, ptr %169, i32 0, i32 12
  %171 = getelementptr inbounds nuw %struct.buffer, ptr %170, i32 0, i32 2
  store i32 %168, ptr %171, align 4
  br label %172

172:                                              ; preds = %162, %150
  %173 = load ptr, ptr %4, align 8
  %174 = getelementptr inbounds nuw %struct._mcast_stream_info, ptr %173, i32 0, i32 12
  %175 = getelementptr inbounds nuw %struct.buffer, ptr %174, i32 0, i32 3
  %176 = load i32, ptr %175, align 8
  %177 = load i32, ptr @mcast_stream_trigger, align 4
  %178 = icmp sge i32 %176, %177
  br i1 %178, label %179, label %194

179:                                              ; preds = %172
  %180 = load ptr, ptr %4, align 8
  %181 = getelementptr inbounds nuw %struct._mcast_stream_info, ptr %180, i32 0, i32 12
  %182 = getelementptr inbounds nuw %struct.buffer, ptr %181, i32 0, i32 6
  %183 = load i32, ptr %182, align 4
  %184 = icmp eq i32 %183, 0
  br i1 %184, label %185, label %194

185:                                              ; preds = %179
  %186 = load ptr, ptr %4, align 8
  %187 = getelementptr inbounds nuw %struct._mcast_stream_info, ptr %186, i32 0, i32 12
  %188 = getelementptr inbounds nuw %struct.buffer, ptr %187, i32 0, i32 6
  store i32 1, ptr %188, align 4
  %189 = load ptr, ptr %4, align 8
  %190 = getelementptr inbounds nuw %struct._mcast_stream_info, ptr %189, i32 0, i32 12
  %191 = getelementptr inbounds nuw %struct.buffer, ptr %190, i32 0, i32 7
  %192 = load i32, ptr %191, align 8
  %193 = add i32 %192, 1
  store i32 %193, ptr %191, align 8
  br label %206

194:                                              ; preds = %179, %172
  %195 = load ptr, ptr %4, align 8
  %196 = getelementptr inbounds nuw %struct._mcast_stream_info, ptr %195, i32 0, i32 12
  %197 = getelementptr inbounds nuw %struct.buffer, ptr %196, i32 0, i32 3
  %198 = load i32, ptr %197, align 8
  %199 = load i32, ptr @mcast_stream_trigger, align 4
  %200 = icmp slt i32 %198, %199
  br i1 %200, label %201, label %205

201:                                              ; preds = %194
  %202 = load ptr, ptr %4, align 8
  %203 = getelementptr inbounds nuw %struct._mcast_stream_info, ptr %202, i32 0, i32 12
  %204 = getelementptr inbounds nuw %struct.buffer, ptr %203, i32 0, i32 6
  store i32 0, ptr %204, align 4
  br label %205

205:                                              ; preds = %201, %194
  br label %206

206:                                              ; preds = %205, %185
  %207 = load ptr, ptr %4, align 8
  %208 = getelementptr inbounds nuw %struct._mcast_stream_info, ptr %207, i32 0, i32 12
  %209 = getelementptr inbounds nuw %struct.buffer, ptr %208, i32 0, i32 5
  %210 = load i32, ptr %209, align 8
  %211 = add i32 %210, 1
  store i32 %211, ptr %209, align 8
  call void @llvm.lifetime.end.p0(i64 4, ptr %8) #12
  call void @llvm.lifetime.end.p0(i64 8, ptr %7) #12
  ret void
}