; Function Attrs: null_pointer_is_valid sspstrong uwtable
define internal fastcc void @slidingwindow(ptr noundef captures(none) %0, ptr noundef readonly captures(none) %1, i32 noundef %2) unnamed_addr #0 {
  %4 = getelementptr inbounds nuw i8, ptr %0, i64 144
  %5 = load ptr, ptr %4, align 8
  %6 = getelementptr inbounds nuw i8, ptr %0, i64 156
  %7 = load i32, ptr %6, align 4
  %8 = getelementptr inbounds nuw i8, ptr %0, i64 152
  %9 = load i32, ptr %8, align 8
  %10 = sub i32 %7, %9
  %11 = icmp slt i32 %10, 0
  %12 = add nsw i32 %10, 40000
  %spec.select = select i1 %11, i32 %12, i32 %10
  %13 = icmp sgt i32 %spec.select, 39997
  br i1 %13, label %14, label %22

14:                                               ; preds = %3
  %15 = load ptr, ptr @stderr, align 8
  %16 = tail call i32 (ptr, i32, ptr, ...) @__fprintf_chk(ptr noundef %15, i32 noundef 2, ptr noundef nonnull @.str.1)
  %17 = load i32, ptr %8, align 8
  %18 = add i32 %17, 1
  store i32 %18, ptr %8, align 8
  %19 = icmp sgt i32 %18, 39999
  br i1 %19, label %20, label %22

20:                                               ; preds = %14
  %21 = urem i32 %18, 40000
  store i32 %21, ptr %8, align 8
  br label %22

22:                                               ; preds = %14, %20, %3
  %23 = load i32, ptr %6, align 4
  %24 = sext i32 %23 to i64
  %25 = getelementptr %struct.nstime_t, ptr %5, i64 %24
  %26 = getelementptr inbounds nuw i8, ptr %1, i64 40
  tail call void @llvm.memcpy.p0.p0.i64(ptr noundef align 8 dereferenceable(16) %25, ptr noundef nonnull align 8 dereferenceable(16) %26, i64 16, i1 false)
  %27 = load i32, ptr %6, align 4
  %28 = sext i32 %27 to i64
  %29 = getelementptr %struct.nstime_t, ptr %5, i64 %28
  %30 = load i16, ptr @mcast_stream_burstint, align 2
  %31 = getelementptr i8, ptr %29, i64 8
  %32 = zext i16 %30 to i64
  %.pre = load i32, ptr %8, align 8
  br label %33

33:                                               ; preds = %44, %22
  %34 = phi i32 [ %.pre, %22 ], [ %storemerge50, %44 ]
  %.1 = phi i32 [ %spec.select, %22 ], [ %48, %44 ]
  %35 = sext i32 %34 to i64
  %36 = getelementptr %struct.nstime_t, ptr %5, i64 %35
  %.val = load i64, ptr %36, align 8
  %37 = getelementptr i8, ptr %36, i64 8
  %.val51 = load i32, ptr %37, align 8
  %.val52 = load i64, ptr %29, align 8
  %.val53 = load i32, ptr %31, align 8
  %38 = sub i64 %.val52, %.val
  %39 = mul i64 %38, 1000
  %40 = sub i32 %.val53, %.val51
  %41 = sdiv i32 %40, 1000000
  %42 = sext i32 %41 to i64
  %43 = add i64 %39, %42
  %.not = icmp sgt i64 %43, %32
  br i1 %.not, label %44, label %49

44:                                               ; preds = %33
  %45 = add i32 %34, 1
  %46 = icmp sgt i32 %45, 39999
  %47 = urem i32 %45, 40000
  %storemerge50 = select i1 %46, i32 %47, i32 %45
  store i32 %storemerge50, ptr %8, align 8
  %48 = add i32 %.1, -1
  br label %33, !llvm.loop !9

49:                                               ; preds = %33
  %50 = getelementptr inbounds nuw i8, ptr %0, i64 160
  store i32 %.1, ptr %50, align 8
  %51 = getelementptr inbounds nuw i8, ptr %0, i64 164
  %52 = load i32, ptr %51, align 4
  %53 = icmp sgt i32 %.1, %52
  br i1 %53, label %54, label %63

54:                                               ; preds = %49
  store i32 %.1, ptr %51, align 4
  %55 = sitofp i32 %.1 to double
  %56 = fmul double %55, 1.000000e+03
  %57 = uitofp i16 %30 to double
  %58 = fdiv double %56, %57
  %59 = uitofp i32 %2 to double
  %60 = fmul double %58, %59
  %61 = fmul double %60, 8.000000e+00
  %62 = getelementptr inbounds nuw i8, ptr %0, i64 200
  store double %61, ptr %62, align 8
  br label %63

63:                                               ; preds = %54, %49
  %64 = add i32 %27, 1
  %65 = icmp sgt i32 %64, 39999
  %66 = urem i32 %64, 40000
  %storemerge = select i1 %65, i32 %66, i32 %64
  store i32 %storemerge, ptr %6, align 4
  %67 = load i32, ptr @mcast_stream_trigger, align 4
  %.not49 = icmp slt i32 %.1, %67
  %68 = getelementptr inbounds nuw i8, ptr %0, i64 172
  br i1 %.not49, label %76, label %69

69:                                               ; preds = %63
  %70 = load i32, ptr %68, align 4
  %71 = icmp eq i32 %70, 0
  br i1 %71, label %72, label %77

72:                                               ; preds = %69
  store i32 1, ptr %68, align 4
  %73 = getelementptr inbounds nuw i8, ptr %0, i64 176
  %74 = load i32, ptr %73, align 8
  %75 = add i32 %74, 1
  store i32 %75, ptr %73, align 8
  br label %77

76:                                               ; preds = %63
  store i32 0, ptr %68, align 4
  br label %77

77:                                               ; preds = %69, %76, %72
  %78 = getelementptr inbounds nuw i8, ptr %0, i64 168
  %79 = load i32, ptr %78, align 8
  %80 = add i32 %79, 1
  store i32 %80, ptr %78, align 8
  ret void
}